((iasmclasses
Rodata
p1
(dp2
S'data'
p3
S'\x03\x00\x00\x00\x01\x00\x02\x00%d\x00Password OK!\n\x00Password Incorrect!\n\x00IOLI Crackme Level 0x05\n\x00Password: \x00%s\x00'
p4
sS'address'
p5
I134514272
sb(lp6
(iasmclasses
CProc
p7
(dp8
S'lines'
p9
(lp10
(iasmclasses
CLine
p11
(dp12
S'function'
p13
S'parell'
p14
sS'code'
p15
S'push   %ebp'
p16
sS'label'
p17
g14
sg5
S'08048484'
p18
sba(iasmclasses
CLine
p19
(dp20
g13
S'parell'
p21
sg15
S'mov    %esp,%ebp'
p22
sg17
S'parell+0x1'
p23
sg5
S'08048485'
p24
sba(iasmclasses
CLine
p25
(dp26
g13
S'parell'
p27
sS'description'
p28
S'\x03'
sg15
S'sub    $0x18,%esp'
p29
sg17
S'parell+0x3'
p30
sg5
S'08048487'
p31
sba(iasmclasses
CLine
p32
(dp33
g13
S'parell'
p34
sg15
S'lea    -0x4(%ebp),%eax'
p35
sg17
S'parell+0x6'
p36
sg5
S'0804848a'
p37
sba(iasmclasses
CLine
p38
(dp39
g13
S'parell'
p40
sg15
S'mov    %eax,0x8(%esp)'
p41
sg17
S'parell+0x9'
p42
sg5
S'0804848d'
p43
sba(iasmclasses
CLine
p44
(dp45
g13
S'parell'
p46
sg28
S'%d'
p47
sg15
S'movl   $0x8048668,0x4(%esp)'
p48
sg17
S'parell+0xd'
p49
sg5
S'08048491'
p50
sba(iasmclasses
CLine
p51
(dp52
g13
S'parell'
p53
sg15
S'mov    0x8(%ebp),%eax'
p54
sg17
S'parell+0x15'
p55
sg5
S'08048499'
p56
sba(iasmclasses
CLine
p57
(dp58
g13
S'parell'
p59
sg15
S'mov    %eax,(%esp)'
p60
sg17
S'parell+0x18'
p61
sg5
S'0804849c'
p62
sba(iasmclasses
CLine
p63
(dp64
g13
S'parell'
p65
sg15
S'call   080483a4 <sscanf@plt>'
p66
sg17
S'parell+0x1b'
p67
sg5
S'0804849f'
p68
sba(iasmclasses
CLine
p69
(dp70
g13
S'parell'
p71
sg15
S'mov    -0x4(%ebp),%eax'
p72
sg17
S'parell+0x20'
p73
sg5
S'080484a4'
p74
sba(iasmclasses
CLine
p75
(dp76
g13
S'parell'
p77
sg15
S'and    $0x1,%eax'
p78
sg17
S'parell+0x23'
p79
sg5
S'080484a7'
p80
sba(iasmclasses
CLine
p81
(dp82
g13
S'parell'
p83
sg15
S'test   %eax,%eax'
p84
sg17
S'parell+0x26'
p85
sg5
S'080484aa'
p86
sba(iasmclasses
CLine
p87
(dp88
g13
S'parell'
p89
sg15
S'jne    080484c6 <parell+0x42>'
p90
sg17
S'parell+0x28'
p91
sg5
S'080484ac'
p92
sba(iasmclasses
CLine
p93
(dp94
g13
S'parell'
p95
sg28
S'Password OK!\n'
p96
sg15
S'movl   $0x804866b,(%esp)'
p97
sg17
S'parell+0x2a'
p98
sg5
S'080484ae'
p99
sba(iasmclasses
CLine
p100
(dp101
g13
S'parell'
p102
sg15
S'call   08048394 <printf@plt>'
p103
sg17
S'parell+0x31'
p104
sg5
S'080484b5'
p105
sba(iasmclasses
CLine
p106
(dp107
g13
S'parell'
p108
sg15
S'movl   $0x0,(%esp)'
p109
sg17
S'parell+0x36'
p110
sg5
S'080484ba'
p111
sba(iasmclasses
CLine
p112
(dp113
g13
S'parell'
p114
sg15
S'call   080483b4 <exit@plt>'
p115
sg17
S'parell+0x3d'
p116
sg5
S'080484c1'
p117
sba(iasmclasses
CLine
p118
(dp119
g13
S'parell'
p120
sg15
S'leave'
p121
sg17
S'parell+0x42'
p122
sg5
S'080484c6'
p123
sba(iasmclasses
CLine
p124
(dp125
g13
S'parell'
p126
sg15
S'ret'
p127
sg17
S'parell+0x43'
p128
sg5
S'080484c7'
p129
sbasS'name'
p130
g14
sg5
g18
sba(iasmclasses
CProc
p131
(dp132
g9
(lp133
(iasmclasses
CLine
p134
(dp135
g13
S'check'
p136
sg15
S'push   %ebp'
p137
sg17
g136
sg5
S'080484c8'
p138
sba(iasmclasses
CLine
p139
(dp140
g13
S'check'
p141
sg15
S'mov    %esp,%ebp'
p142
sg17
S'check+0x1'
p143
sg5
S'080484c9'
p144
sba(iasmclasses
CLine
p145
(dp146
g13
S'check'
p147
sg28
S'\x03'
sg15
S'sub    $0x28,%esp'
p148
sg17
S'check+0x3'
p149
sg5
S'080484cb'
p150
sba(iasmclasses
CLine
p151
(dp152
g13
S'check'
p153
sg15
S'movl   $0x0,-0x8(%ebp)'
p154
sg17
S'check+0x6'
p155
sg5
S'080484ce'
p156
sba(iasmclasses
CLine
p157
(dp158
g13
S'check'
p159
sg15
S'movl   $0x0,-0xc(%ebp)'
p160
sg17
S'check+0xd'
p161
sg5
S'080484d5'
p162
sba(iasmclasses
CLine
p163
(dp164
g13
S'check'
p165
sg15
S'mov    0x8(%ebp),%eax'
p166
sg17
S'check+0x14'
p167
sg5
S'080484dc'
p168
sba(iasmclasses
CLine
p169
(dp170
g13
S'check'
p171
sg15
S'mov    %eax,(%esp)'
p172
sg17
S'check+0x17'
p173
sg5
S'080484df'
p174
sba(iasmclasses
CLine
p175
(dp176
g13
S'check'
p177
sg15
S'call   08048384 <strlen@plt>'
p178
sg17
S'check+0x1a'
p179
sg5
S'080484e2'
p180
sba(iasmclasses
CLine
p181
(dp182
g13
S'check'
p183
sg15
S'cmp    %eax,-0xc(%ebp)'
p184
sg17
S'check+0x1f'
p185
sg5
S'080484e7'
p186
sba(iasmclasses
CLine
p187
(dp188
g13
S'check'
p189
sg15
S'jae    08048532 <check+0x6a>'
p190
sg17
S'check+0x22'
p191
sg5
S'080484ea'
p192
sba(iasmclasses
CLine
p193
(dp194
g13
S'check'
p195
sg15
S'mov    -0xc(%ebp),%eax'
p196
sg17
S'check+0x24'
p197
sg5
S'080484ec'
p198
sba(iasmclasses
CLine
p199
(dp200
g13
S'check'
p201
sg15
S'add    0x8(%ebp),%eax'
p202
sg17
S'check+0x27'
p203
sg5
S'080484ef'
p204
sba(iasmclasses
CLine
p205
(dp206
g13
S'check'
p207
sg15
S'movzbl (%eax),%eax'
p208
sg17
S'check+0x2a'
p209
sg5
S'080484f2'
p210
sba(iasmclasses
CLine
p211
(dp212
g13
S'check'
p213
sg15
S'mov    %al,-0xd(%ebp)'
p214
sg17
S'check+0x2d'
p215
sg5
S'080484f5'
p216
sba(iasmclasses
CLine
p217
(dp218
g13
S'check'
p219
sg15
S'lea    -0x4(%ebp),%eax'
p220
sg17
S'check+0x30'
p221
sg5
S'080484f8'
p222
sba(iasmclasses
CLine
p223
(dp224
g13
S'check'
p225
sg15
S'mov    %eax,0x8(%esp)'
p226
sg17
S'check+0x33'
p227
sg5
S'080484fb'
p228
sba(iasmclasses
CLine
p229
(dp230
g13
S'check'
p231
sg28
S'%d'
p232
sg15
S'movl   $0x8048668,0x4(%esp)'
p233
sg17
S'check+0x37'
p234
sg5
S'080484ff'
p235
sba(iasmclasses
CLine
p236
(dp237
g13
S'check'
p238
sg15
S'lea    -0xd(%ebp),%eax'
p239
sg17
S'check+0x3f'
p240
sg5
S'08048507'
p241
sba(iasmclasses
CLine
p242
(dp243
g13
S'check'
p244
sg15
S'mov    %eax,(%esp)'
p245
sg17
S'check+0x42'
p246
sg5
S'0804850a'
p247
sba(iasmclasses
CLine
p248
(dp249
g13
S'check'
p250
sg15
S'call   080483a4 <sscanf@plt>'
p251
sg17
S'check+0x45'
p252
sg5
S'0804850d'
p253
sba(iasmclasses
CLine
p254
(dp255
g13
S'check'
p256
sg15
S'mov    -0x4(%ebp),%edx'
p257
sg17
S'check+0x4a'
p258
sg5
S'08048512'
p259
sba(iasmclasses
CLine
p260
(dp261
g13
S'check'
p262
sg15
S'lea    -0x8(%ebp),%eax'
p263
sg17
S'check+0x4d'
p264
sg5
S'08048515'
p265
sba(iasmclasses
CLine
p266
(dp267
g13
S'check'
p268
sg15
S'add    %edx,(%eax)'
p269
sg17
S'check+0x50'
p270
sg5
S'08048518'
p271
sba(iasmclasses
CLine
p272
(dp273
g13
S'check'
p274
sg28
S'\x03'
sg15
S'cmpl   $0x10,-0x8(%ebp)'
p275
sg17
S'check+0x52'
p276
sg5
S'0804851a'
p277
sba(iasmclasses
CLine
p278
(dp279
g13
S'check'
p280
sg15
S'jne    0804852b <check+0x63>'
p281
sg17
S'check+0x56'
p282
sg5
S'0804851e'
p283
sba(iasmclasses
CLine
p284
(dp285
g13
S'check'
p286
sg15
S'mov    0x8(%ebp),%eax'
p287
sg17
S'check+0x58'
p288
sg5
S'08048520'
p289
sba(iasmclasses
CLine
p290
(dp291
g13
S'check'
p292
sg15
S'mov    %eax,(%esp)'
p293
sg17
S'check+0x5b'
p294
sg5
S'08048523'
p295
sba(iasmclasses
CLine
p296
(dp297
g13
S'check'
p298
sg15
S'call   08048484 <parell>'
p299
sg17
S'check+0x5e'
p300
sg5
S'08048526'
p301
sba(iasmclasses
CLine
p302
(dp303
g13
S'check'
p304
sg15
S'lea    -0xc(%ebp),%eax'
p305
sg17
S'check+0x63'
p306
sg5
S'0804852b'
p307
sba(iasmclasses
CLine
p308
(dp309
g13
S'check'
p310
sg15
S'incl   (%eax)'
p311
sg17
S'check+0x66'
p312
sg5
S'0804852e'
p313
sba(iasmclasses
CLine
p314
(dp315
g13
S'check'
p316
sg15
S'jmp    080484dc <check+0x14>'
p317
sg17
S'check+0x68'
p318
sg5
S'08048530'
p319
sba(iasmclasses
CLine
p320
(dp321
g13
S'check'
p322
sg28
S'Password Incorrect!\n'
p323
sg15
S'movl   $0x8048679,(%esp)'
p324
sg17
S'check+0x6a'
p325
sg5
S'08048532'
p326
sba(iasmclasses
CLine
p327
(dp328
g13
S'check'
p329
sg15
S'call   08048394 <printf@plt>'
p330
sg17
S'check+0x71'
p331
sg5
S'08048539'
p332
sba(iasmclasses
CLine
p333
(dp334
g13
S'check'
p335
sg15
S'leave'
p336
sg17
S'check+0x76'
p337
sg5
S'0804853e'
p338
sba(iasmclasses
CLine
p339
(dp340
g13
S'check'
p341
sg15
S'ret'
p342
sg17
S'check+0x77'
p343
sg5
S'0804853f'
p344
sbasg130
g136
sg5
g138
sba(iasmclasses
CProc
p345
(dp346
g9
(lp347
(iasmclasses
CLine
p348
(dp349
g13
S'main'
p350
sg15
S'push   %ebp'
p351
sg17
g350
sg5
S'08048540'
p352
sba(iasmclasses
CLine
p353
(dp354
g13
S'main'
p355
sg15
S'mov    %esp,%ebp'
p356
sg17
S'main+0x1'
p357
sg5
S'08048541'
p358
sba(iasmclasses
CLine
p359
(dp360
g13
S'main'
p361
sg28
S'\x03'
sg15
S'sub    $0x88,%esp'
p362
sg17
S'main+0x3'
p363
sg5
S'08048543'
p364
sba(iasmclasses
CLine
p365
(dp366
g13
S'main'
p367
sg15
S'and    $0xfffffff0,%esp'
p368
sg17
S'main+0x9'
p369
sg5
S'08048549'
p370
sba(iasmclasses
CLine
p371
(dp372
g13
S'main'
p373
sg15
S'mov    $0x0,%eax'
p374
sg17
S'main+0xc'
p375
sg5
S'0804854c'
p376
sba(iasmclasses
CLine
p377
(dp378
g13
S'main'
p379
sg15
S'add    $0xf,%eax'
p380
sg17
S'main+0x11'
p381
sg5
S'08048551'
p382
sba(iasmclasses
CLine
p383
(dp384
g13
S'main'
p385
sg15
S'add    $0xf,%eax'
p386
sg17
S'main+0x14'
p387
sg5
S'08048554'
p388
sba(iasmclasses
CLine
p389
(dp390
g13
S'main'
p391
sg15
S'shr    $0x4,%eax'
p392
sg17
S'main+0x17'
p393
sg5
S'08048557'
p394
sba(iasmclasses
CLine
p395
(dp396
g13
S'main'
p397
sg15
S'shl    $0x4,%eax'
p398
sg17
S'main+0x1a'
p399
sg5
S'0804855a'
p400
sba(iasmclasses
CLine
p401
(dp402
g13
S'main'
p403
sg15
S'sub    %eax,%esp'
p404
sg17
S'main+0x1d'
p405
sg5
S'0804855d'
p406
sba(iasmclasses
CLine
p407
(dp408
g13
S'main'
p409
sg28
S'IOLI Crackme Level 0x05\n'
p410
sg15
S'movl   $0x804868e,(%esp)'
p411
sg17
S'main+0x1f'
p412
sg5
S'0804855f'
p413
sba(iasmclasses
CLine
p414
(dp415
g13
S'main'
p416
sg15
S'call   08048394 <printf@plt>'
p417
sg17
S'main+0x26'
p418
sg5
S'08048566'
p419
sba(iasmclasses
CLine
p420
(dp421
g13
S'main'
p422
sg28
S'Password: '
p423
sg15
S'movl   $0x80486a7,(%esp)'
p424
sg17
S'main+0x2b'
p425
sg5
S'0804856b'
p426
sba(iasmclasses
CLine
p427
(dp428
g13
S'main'
p429
sg15
S'call   08048394 <printf@plt>'
p430
sg17
S'main+0x32'
p431
sg5
S'08048572'
p432
sba(iasmclasses
CLine
p433
(dp434
g13
S'main'
p435
sg15
S'lea    -0x78(%ebp),%eax'
p436
sg17
S'main+0x37'
p437
sg5
S'08048577'
p438
sba(iasmclasses
CLine
p439
(dp440
g13
S'main'
p441
sg15
S'mov    %eax,0x4(%esp)'
p442
sg17
S'main+0x3a'
p443
sg5
S'0804857a'
p444
sba(iasmclasses
CLine
p445
(dp446
g13
S'main'
p447
sg28
S'%s'
p448
sg15
S'movl   $0x80486b2,(%esp)'
p449
sg17
S'main+0x3e'
p450
sg5
S'0804857e'
p451
sba(iasmclasses
CLine
p452
(dp453
g13
S'main'
p454
sg15
S'call   08048374 <scanf@plt>'
p455
sg17
S'main+0x45'
p456
sg5
S'08048585'
p457
sba(iasmclasses
CLine
p458
(dp459
g13
S'main'
p460
sg15
S'lea    -0x78(%ebp),%eax'
p461
sg17
S'main+0x4a'
p462
sg5
S'0804858a'
p463
sba(iasmclasses
CLine
p464
(dp465
g13
S'main'
p466
sg15
S'mov    %eax,(%esp)'
p467
sg17
S'main+0x4d'
p468
sg5
S'0804858d'
p469
sba(iasmclasses
CLine
p470
(dp471
g13
S'main'
p472
sg15
S'call   080484c8 <check>'
p473
sg17
S'main+0x50'
p474
sg5
S'08048590'
p475
sba(iasmclasses
CLine
p476
(dp477
g13
S'main'
p478
sg15
S'mov    $0x0,%eax'
p479
sg17
S'main+0x55'
p480
sg5
S'08048595'
p481
sba(iasmclasses
CLine
p482
(dp483
g13
S'main'
p484
sg15
S'leave'
p485
sg17
S'main+0x5a'
p486
sg5
S'0804859a'
p487
sba(iasmclasses
CLine
p488
(dp489
g13
S'main'
p490
sg15
S'ret'
p491
sg17
S'main+0x5b'
p492
sg5
S'0804859b'
p493
sba(iasmclasses
CLine
p494
(dp495
g13
S'main'
p496
sg15
S'nop'
p497
sg17
S'main+0x5c'
p498
sg5
S'0804859c'
p499
sba(iasmclasses
CLine
p500
(dp501
g13
S'main'
p502
sg15
S'nop'
p503
sg17
S'main+0x5d'
p504
sg5
S'0804859d'
p505
sba(iasmclasses
CLine
p506
(dp507
g13
S'main'
p508
sg15
S'nop'
p509
sg17
S'main+0x5e'
p510
sg5
S'0804859e'
p511
sba(iasmclasses
CLine
p512
(dp513
g13
S'main'
p514
sg15
S'nop'
p515
sg17
S'main+0x5f'
p516
sg5
S'0804859f'
p517
sbasg130
g350
sg5
g352
sbatp518
.