(dp0
S'212.145.4.82asn'
p1
I01
sS'89.202.171.30asn'
p2
I01
sS'193.110.128.199_name'
p3
(lp4
S'www.elmundo.es'
p5
asS'193.110.128.199_trace'
p6
(lp7
S'192.168.0.192'
p8
aS'77.224.146.1'
p9
aS'10.4.0.101'
p10
aS'212.145.3.218'
p11
aS'212.145.4.82'
p12
aS'193.149.1.162'
p13
aS'62.175.140.78'
p14
aS'193.110.128.199'
p15
asS'covert'
p16
I0
sS'4.69.141.118asn'
p17
I01
sS'212.23.42.21asn'
p18
I01
sS'waittime'
p19
S''
p20
sS'193.110.128.199_services'
p21
(lp22
S'80/http'
p23
asS'212.145.3.218asn'
p24
I01
sS'isGui'
p25
I01
sS'195.43.128.100asn'
p26
I01
sS'4.69.141.85asn'
p27
I01
sS'193.110.128.199_mac_vendor'
p28
(lp29
S'Telsey SPA'
p30
asS'port'
p31
g20
sS'212.113.16.110asn'
p32
I01
sS'4.69.141.201asn'
p33
I01
sS'192.168.0.192_trace'
p34
(lp35
S'192.168.0.192'
p36
aS'192.168.0.1'
p37
asS'graph'
p38
(dp39
S'ASDs'
p40
(dp41
I8928
S'INTEROUTE Interoute Communications Ltd'
p42
sS'AS6067'
p43
S'ONYX Onyx Internet'
p44
sI12357
S'COMUNITEL Comunitel Global Autonomous System'
p45
sS'local'
p46
S'Local Network'
p47
sI6895
S'ESPANIX Neutral Interconect Exchange for Spain'
p48
sI16338
S'AUNA_TELECOM-AS Cableuropa - ONO'
p49
sI3356
S'LEVEL3 Level 3 Communications'
p50
sI47739
S'MICROMEDIOS-DIGITALES-AS Micromedios Digitales, S.L.'
p51
sI9052
S'Unidad Editorial - El Mundo'
p52
ssS'ASNs'
p53
(dp54
I8928
(lp55
S'212.23.42.21'
p56
aS'84.233.218.158'
p57
aS'89.202.161.21'
p58
aS'89.202.171.30'
p59
asg43
(lp60
g10
asI12357
(lp61
S'212.145.4.76'
p62
asg46
(lp63
g36
ag37
asI6895
(lp64
S'193.149.1.162'
p65
asI16338
(lp66
S'62.175.140.78'
p67
asI3356
(lp68
S'213.242.109.129'
p69
aS'4.69.141.45'
p70
aS'4.69.141.42'
p71
aS'4.69.141.85'
p72
aS'4.69.141.201'
p73
aS'4.69.141.118'
p74
aS'4.69.139.66'
p75
aS'212.113.16.110'
p76
asI47739
(lp77
S'195.43.128.100'
p78
asI9052
(lp79
S'193.110.128.199'
p80
asssS'wizard'
p81
(lp82
sS'10.4.0.101asn'
p83
I01
sS'193.110.128.199_asn'
p84
(lp85
S'9052 Unidad Editorial - El Mundo'
p86
asS'dict'
p87
S'.data/dict'
p88
sS'193.110.128.199asn'
p89
I01
sS'195.43.128.100_trace'
p90
(lp91
S'192.168.0.192'
p92
aS'77.224.146.1'
p93
aS'10.4.0.101'
p94
aS'212.145.3.218'
p95
aS'212.145.4.76'
p96
aS'213.242.109.129'
p97
aS'4.69.141.45'
p98
aS'4.69.141.42'
p99
aS'4.69.141.85'
p100
aS'4.69.141.201'
p101
aS'4.69.141.118'
p102
aS'4.69.139.66'
p103
aS'212.113.16.110'
p104
aS'212.23.42.21'
p105
aS'84.233.218.158'
p106
aS'89.202.161.21'
p107
aS'89.202.171.30'
p108
aS'195.43.128.100'
p109
asS'4.69.139.66asn'
p110
I01
sS'213.242.109.129asn'
p111
I01
sS'base_path'
p112
S'.'
p113
sS'user'
p114
g20
sS'4.69.141.45asn'
p115
I01
sS'services'
p116
(lp117
sS'212.145.4.76asn'
p118
I01
sS'password'
p119
g20
sS'193.110.128.199_ports'
p120
(lp121
I80
asS'192.168.0.192asn'
p122
I01
sS'target'
p123
S'195.43.128.100'
p124
sS'77.224.146.1asn'
p125
I01
sS'89.202.161.21asn'
p126
I01
sS'62.175.140.78asn'
p127
I01
sS'193.110.128.199_mac'
p128
(lp129
S'00:03:6f:78:75:e8'
p130
asS'193.149.1.162asn'
p131
I01
sS'hosts'
p132
(lp133
g36
ag37
aS'193.110.128.199'
p134
ag9
ag10
ag11
ag12
ag13
ag14
aS'195.43.128.100'
p135
ag96
ag97
ag98
ag99
ag100
ag101
ag102
ag103
ag104
ag105
ag106
ag107
ag108
asS'dotcode'
p136
S'digraph G {\n\n\trankdir="TD"\nbgcolor=gray0\n\nroot="192.168.0.192";\n\n\nnode [shape=record,color=blue,style=filled fillcolor=skyblue];\n\n#ASN clustering\n\tsubgraph cluster_8928 {\n\t\tcolor="#608686";\t\tfontcolor="#608686";\t\tnode [fillcolor="#60baba",style=filled];\t\tfontsize = 10;\t\tlabel = "8928\\n[INTEROUTE Interoute Communications Ltd]"\n\t\t"212.23.42.21";\n\t\t"84.233.218.158";\n\t\t"89.202.161.21";\n\t\t"89.202.171.30";\n\t}\n\tsubgraph cluster_AS6067 {\n\t\tcolor="#608686";\t\tfontcolor="#608686";\t\tnode [fillcolor="#60baba",style=filled];\t\tfontsize = 10;\t\tlabel = "AS6067\\n[ONYX Onyx Internet]"\n\t\t"10.4.0.101";\n\t}\n\tsubgraph cluster_12357 {\n\t\tcolor="#608686";\t\tfontcolor="#608686";\t\tnode [fillcolor="#60baba",style=filled];\t\tfontsize = 10;\t\tlabel = "12357\\n[COMUNITEL Comunitel Global Autonomous System]"\n\t\t"212.145.4.76";\n\t}\n\tsubgraph cluster_local {\n\t\tcolor="lawngreen";\t\tfontcolor="lawngreen";\t\tnode [fillcolor="#60baba",style=filled];\t\tfontsize = 10;\t\tlabel = "local\\n[Local Network]"\n\t\t"192.168.0.192";\n\t\t"192.168.0.1";\n\t}\n\tsubgraph cluster_6895 {\n\t\tcolor="#608686";\t\tfontcolor="#608686";\t\tnode [fillcolor="#60baba",style=filled];\t\tfontsize = 10;\t\tlabel = "6895\\n[ESPANIX Neutral Interconect Exchange for Spain]"\n\t\t"193.149.1.162";\n\t}\n\tsubgraph cluster_16338 {\n\t\tcolor="#608686";\t\tfontcolor="#608686";\t\tnode [fillcolor="#60baba",style=filled];\t\tfontsize = 10;\t\tlabel = "16338\\n[AUNA_TELECOM-AS Cableuropa - ONO]"\n\t\t"62.175.140.78";\n\t}\n\tsubgraph cluster_3356 {\n\t\tcolor="#608686";\t\tfontcolor="#608686";\t\tnode [fillcolor="#60baba",style=filled];\t\tfontsize = 10;\t\tlabel = "3356\\n[LEVEL3 Level 3 Communications]"\n\t\t"213.242.109.129";\n\t\t"4.69.141.45";\n\t\t"4.69.141.42";\n\t\t"4.69.141.85";\n\t\t"4.69.141.201";\n\t\t"4.69.141.118";\n\t\t"4.69.139.66";\n\t\t"212.113.16.110";\n\t}\n\tsubgraph cluster_47739 {\n\t\tcolor="#608686";\t\tfontcolor="#608686";\t\tnode [fillcolor="#60baba",style=filled];\t\tfontsize = 10;\t\tlabel = "47739\\n[MICROMEDIOS-DIGITALES-AS Micromedios Digitales, S.L.]"\n\t\t"195.43.128.100";\n\t}\n\tsubgraph cluster_9052 {\n\t\tcolor="#608686";\t\tfontcolor="#608686";\t\tnode [fillcolor="#60baba",style=filled];\t\tfontsize = 10;\t\tlabel = "9052\\n[Unidad Editorial - El Mundo]"\n\t\t"193.110.128.199";\n\t}\n\t"192.168.0.192" [URL="192.168.0.192"]\n\t"193.110.128.199" [URL="193.110.128.199"]\n\t"195.43.128.100" [URL="195.43.128.100"]\n\t"192.168.0.1" [URL="192.168.0.1"]\n\t"192.168.0.192" [URL="192.168.0.192"]\n\t"192.168.0.1" [URL="192.168.0.1"]\n\t"192.168.0.192" [URL="192.168.0.192"]\n\t"77.224.146.1" [URL="77.224.146.1"]\n\t"10.4.0.101" [URL="10.4.0.101"]\n\t"212.145.3.218" [URL="212.145.3.218"]\n\t"212.145.4.82" [URL="212.145.4.82"]\n\t"193.149.1.162" [URL="193.149.1.162"]\n\t"62.175.140.78" [URL="62.175.140.78"]\n\t"193.110.128.199" [URL="193.110.128.199"]\n\t"192.168.0.192" [URL="192.168.0.192"]\n\t"77.224.146.1" [URL="77.224.146.1"]\n\t"10.4.0.101" [URL="10.4.0.101"]\n\t"212.145.3.218" [URL="212.145.3.218"]\n\t"212.145.4.76" [URL="212.145.4.76"]\n\t"213.242.109.129" [URL="213.242.109.129"]\n\t"4.69.141.45" [URL="4.69.141.45"]\n\t"4.69.141.42" [URL="4.69.141.42"]\n\t"4.69.141.85" [URL="4.69.141.85"]\n\t"4.69.141.201" [URL="4.69.141.201"]\n\t"4.69.141.118" [URL="4.69.141.118"]\n\t"4.69.139.66" [URL="4.69.139.66"]\n\t"212.113.16.110" [URL="212.113.16.110"]\n\t"212.23.42.21" [URL="212.23.42.21"]\n\t"84.233.218.158" [URL="84.233.218.158"]\n\t"89.202.161.21" [URL="89.202.161.21"]\n\t"89.202.171.30" [URL="89.202.171.30"]\n\t"195.43.128.100" [URL="195.43.128.100"]\n\t"192.168.0.192" [shape=record,color=red3,fillcolor=red1,style=filled,label="192.168.0.192"];\n\t"193.110.128.199" [shape=record,color=red3,fillcolor=red1,style=filled,label="193.110.128.199"];\n\t"195.43.128.100" [shape=record,color=red3,fillcolor=red1,style=filled,label="195.43.128.100"];\n\n\t"192.168.0.192"->\n\t"192.168.0.192" [color="blue"];\n\n\t"192.168.0.192"->\n\t"77.224.146.1"->\n\t"10.4.0.101"->\n\t"212.145.3.218"->\n\t"212.145.4.82"->\n\t"193.149.1.162"->\n\t"62.175.140.78"->\n\t"193.110.128.199" [color="blue"];\n\n\t"192.168.0.192"->\n\t"77.224.146.1"->\n\t"10.4.0.101"->\n\t"212.145.3.218"->\n\t"212.145.4.76"->\n\t"213.242.109.129"->\n\t"4.69.141.45"->\n\t"4.69.141.42"->\n\t"4.69.141.85"->\n\t"4.69.141.201"->\n\t"4.69.141.118"->\n\t"4.69.139.66"->\n\t"212.113.16.110"->\n\t"212.23.42.21"->\n\t"84.233.218.158"->\n\t"89.202.161.21"->\n\t"89.202.171.30"->\n\t"195.43.128.100" [color="blue"];\n\n\t"192.168.0.192"->\n\t"192.168.0.1" [color="blue"];\n\n}'
p137
sS'timeout'
p138
I5
sS'4.69.141.42asn'
p139
I01
sS'192.168.0.1asn'
p140
I01
sS'84.233.218.158asn'
p141
I01
sS'ports'
p142
(lp143
I15
aI21
aI22
aI23
aI24
aI25
aI80
aI81
aI82
aI83
aI84
aI85
aI88
aI90
aI87
aI100
aI120
aI125
aI135
aI136
aI137
aI138
aI139
aI265
aI383
aI389
aI445
aI386
aI515
aI566
aI603
aI628
aI631
aI635
aI636
aI686
aI640
aI650
aI674
aI677
aI678
aI691
aI706
aI723
aI737
aI754
aI783
aI799
aI808
aI871
aI873
aI898
aI901
aI902
aI903
aI950
aI953
aI975
aI989
aI990
aI992
aI993
aI994
aI995
aI1002
aI1012
aI1023
aI1024
aI1026
aI1027
aI1028
aI1029
aI1033
aI1034
aI1040
aI1050
aI1057
aI1076
aI1103
aI1109
aI1112
aI1127
aI1139
aI1158
aI1167
aI1178
aI1220
aI1234
aI1241
aI1337
aI1383
aI1521
aI1522
aI1523
aI1524
aI1525
aI1526
aI1527
aI1528
aI1529
aI1530
aI1531
aI1532
aI1533
aI1534
aI1535
aI1536
aI1537
aI1538
aI1539
aI1540
aI1541
aI1546
aI1551
aI1561
aI1571
aI1581
aI1591
aI1645
aI1646
aI1680
aI1636
aI1686
aI1701
aI1720
aI1723
aI1755
aI1761
aI1762
aI1763
aI1764
aI1812
aI1813
aI1827
aI1935
aI1984
aI2003
aI2021
aI2053
aI2064
aI2068
aI2103
aI2104
aI2111
aI2112
aI2120
aI2121
aI2301
aI2564
aI2600
aI2601
aI2602
aI2603
aI2604
aI2605
aI2628
aI2638
aI2766
aI2809
aI2903
aI2948
aI2967
aI2998
aI3000
aI3001
aI3005
aI3006
aI3031
aI3052
aI3064
aI3086
aI3128
aI3130
aI3268
aI3269
aI3292
aI3306
aI3372
aI3389
aI3401
aI3462
aI3632
aI3689
aI3996
aI3997
aI3998
aI3999
aI4125
aI4144
aI4224
aI4333
aI4480
aI4557
aI4559
aI4660
aI4827
aI4899
aI4987
aI4998
aI5100
aI5101
aI5102
aI5232
aI5400
aI5405
aI5428
aI5432
aI5490
aI5500
aI5510
aI5520
aI5530
aI5550
aI5560
aI5631
aI5679
aI5680
aI5800
aI5801
aI5802
aI5803
aI5900
aI5901
aI5902
aI5903
aI5977
aI5978
aI5979
aI5997
aI5998
aI5999
aI6000
aI6001
aI6002
aI6003
aI6004
aI6005
aI6006
aI6007
aI6008
aI6009
aI6017
aI6050
aI6101
aI6103
aI6105
aI6106
aI6112
aI6346
aI6400
aI6401
aI6543
aI6544
aI6547
aI6548
aI6549
aI6588
aI6666
aI6667
aI6668
aI6699
aI7070
aI7273
aI7326
aI7464
aI7597
aI7648
aI7649
aI7650
aI7651
aI7937
aI7776
aI7777
aI7778
aI7779
aI7938
aI8000
aI8001
aI8002
aI8003
aI8004
aI8007
aI8009
aI8021
aI8080
aI8081
aI8082
aI8083
aI8084
aI8085
aI8086
aI8087
aI8088
aI8089
aI8443
aI8888
aI8892
aI9090
aI9100
aI9111
aI9152
aI9991
aI9992
aI9999
aI10000
aI10005
aI10080
aI10082
aI10083
aI11371
aI11521
aI12000
aI12345
aI12346
aI13701
aI13702
aI13705
aI13706
aI13708
aI13709
aI13710
aI13711
aI13712
aI13713
aI13714
aI13715
aI13716
aI13717
aI13718
aI13720
aI13721
aI13722
aI13782
aI13783
aI15126
aI16959
aI17185
aI17300
aI18181
aI18182
aI18183
aI18184
aI18185
aI18187
aI19150
aI20005
aI22273
aI22289
aI22305
aI22321
aI26000
aI26208
aI26900
aI27000
aI27001
aI27002
aI27003
aI27004
aI27005
aI27006
aI27007
aI27008
aI27009
aI27010
aI27015
aI27374
aI27444
aI27500
aI27665
aI27910
aI27960
aI28910
aI31335
aI32768
aI38292
aI38293
aI39213
aI43188
aI44334
aI44442
aI44443
aI45000
aI49400
aI50000
aI50002
aI54320
aI54321
aI59769
aI61439
aI61440
aI61441
aI65301
aI11
aI37
aI79
aI110
aI111
aI143
aI360
aI427
aI512
aI513
aI514
aI826
aI2049
aI32770
aI32771
aI32773
aI32774
aI32775
aI32776
aI32777
aI32778
aI32779
aI17000
aI17002
aI17004
asS'interactive'
p144
I00
s.